target datalayout = "e-m:e-p270:32:32-p271:32:32-p272:64:64-i64:64-i128:128-f80:128-n8:16:32:64-S128"
target triple = "x86_64-pc-linux-gnu"

%"class.i18n::phonenumbers::UnicodeText::Repr" = type <{ ptr, i32, i32, i8, i8, [6 x i8] }>
%"class.i18n::phonenumbers::UnicodeText" = type { %"class.i18n::phonenumbers::UnicodeText::Repr" }
%"class.i18n::phonenumbers::LoggerHandler" = type { ptr }
%"class.i18n::phonenumbers::Logger" = type <{ ptr, i32, [4 x i8] }>

@.str.8 = private unnamed_addr constant [39 x i8] c"UTF-8 buffer is not interchange-valid.\00", align 1
@_ZN4i18n12phonenumbers6Logger5impl_E = external global ptr, align 8

; Function Attrs: mustprogress nounwind uwtable
define linkonce_odr dso_local void @_ZN4i18n12phonenumbers13LoggerHandlerC2EPNS0_6LoggerE(ptr noundef nonnull align 8 dereferenceable(8) %0, ptr noundef %1) unnamed_addr #1 comdat align 2 {
  %3 = alloca ptr, align 8
  %4 = alloca ptr, align 8
  store ptr %0, ptr %3, align 8, !tbaa !56
  store ptr %1, ptr %4, align 8, !tbaa !54
  %5 = load ptr, ptr %3, align 8
  %6 = getelementptr inbounds nuw %"class.i18n::phonenumbers::LoggerHandler", ptr %5, i32 0, i32 0
  %7 = load ptr, ptr %4, align 8, !tbaa !54
  store ptr %7, ptr %6, align 8, !tbaa !58
  ret void
}

; Function Attrs: inlinehint mustprogress nounwind uwtable
define linkonce_odr dso_local noundef i32 @_ZNK4i18n12phonenumbers6Logger5levelEv(ptr noundef nonnull align 8 dereferenceable(12) %0) #2 comdat align 2 {
  %2 = alloca ptr, align 8
  store ptr %0, ptr %2, align 8, !tbaa !54
  %3 = load ptr, ptr %2, align 8
  %4 = getelementptr inbounds nuw %"class.i18n::phonenumbers::Logger", ptr %3, i32 0, i32 1
  %5 = load i32, ptr %4, align 8, !tbaa !79
  ret i32 %5
}

; Function Attrs: inlinehint mustprogress nounwind uwtable
define linkonce_odr dso_local noundef ptr @_ZN4i18n12phonenumbers6Logger19mutable_logger_implEv() #2 comdat align 2 {
  %1 = load ptr, ptr @_ZN4i18n12phonenumbers6Logger5impl_E, align 8, !tbaa !54
  ret ptr %1
}

; Function Attrs: mustprogress uwtable
define internal noundef i32 @_ZN4i18n12phonenumbersL25ConvertToInterchangeValidEPci(ptr noundef %0, i32 noundef %1) #0 {
  %3 = alloca ptr, align 8
  %4 = alloca i32, align 4
  %5 = alloca ptr, align 8
  %6 = alloca ptr, align 8
  %7 = alloca ptr, align 8
  %8 = alloca i32, align 4
  %9 = alloca i32, align 4
  %10 = alloca i32, align 4
  %11 = alloca i32, align 4
  store ptr %0, ptr %3, align 8, !tbaa !12
  store i32 %1, ptr %4, align 4, !tbaa !13
  call void @llvm.lifetime.start.p0(i64 8, ptr %5) #15
  %12 = load ptr, ptr %3, align 8, !tbaa !12
  store ptr %12, ptr %5, align 8, !tbaa !12
  call void @llvm.lifetime.start.p0(i64 8, ptr %6) #15
  %13 = load ptr, ptr %3, align 8, !tbaa !12
  store ptr %13, ptr %6, align 8, !tbaa !12
  call void @llvm.lifetime.start.p0(i64 8, ptr %7) #15
  %14 = load ptr, ptr %3, align 8, !tbaa !12
  %15 = load i32, ptr %4, align 4, !tbaa !13
  %16 = sext i32 %15 to i64
  %17 = getelementptr inbounds i8, ptr %14, i64 %16
  store ptr %17, ptr %7, align 8, !tbaa !12
  br label %18

18:                                               ; preds = %79, %2
  %19 = load ptr, ptr %3, align 8, !tbaa !12
  %20 = load ptr, ptr %7, align 8, !tbaa !12
  %21 = icmp ult ptr %19, %20
  br i1 %21, label %22, label %80

22:                                               ; preds = %18
  call void @llvm.lifetime.start.p0(i64 4, ptr %8) #15
  %23 = load ptr, ptr %3, align 8, !tbaa !12
  %24 = load ptr, ptr %7, align 8, !tbaa !12
  %25 = load ptr, ptr %3, align 8, !tbaa !12
  %26 = ptrtoint ptr %24 to i64
  %27 = ptrtoint ptr %25 to i64
  %28 = sub i64 %26, %27
  %29 = trunc i64 %28 to i32
  %30 = call noundef i32 @_ZN4i18n12phonenumbers6UniLib20SpanInterchangeValidEPKci(ptr noundef %23, i32 noundef %29)
  store i32 %30, ptr %8, align 4, !tbaa !13
  %31 = load i32, ptr %8, align 4, !tbaa !13
  %32 = icmp sgt i32 %31, 0
  br i1 %32, label %33, label %56

33:                                               ; preds = %22
  %34 = load ptr, ptr %6, align 8, !tbaa !12
  %35 = load ptr, ptr %3, align 8, !tbaa !12
  %36 = icmp ne ptr %34, %35
  br i1 %36, label %37, label %42

37:                                               ; preds = %33
  %38 = load ptr, ptr %6, align 8, !tbaa !12
  %39 = load ptr, ptr %3, align 8, !tbaa !12
  %40 = load i32, ptr %8, align 4, !tbaa !13
  %41 = sext i32 %40 to i64
  call void @llvm.memmove.p0.p0.i64(ptr align 1 %38, ptr align 1 %39, i64 %41, i1 false)
  br label %42

42:                                               ; preds = %37, %33
  %43 = load i32, ptr %8, align 4, !tbaa !13
  %44 = load ptr, ptr %6, align 8, !tbaa !12
  %45 = sext i32 %43 to i64
  %46 = getelementptr inbounds i8, ptr %44, i64 %45
  store ptr %46, ptr %6, align 8, !tbaa !12
  %47 = load i32, ptr %8, align 4, !tbaa !13
  %48 = load ptr, ptr %3, align 8, !tbaa !12
  %49 = sext i32 %47 to i64
  %50 = getelementptr inbounds i8, ptr %48, i64 %49
  store ptr %50, ptr %3, align 8, !tbaa !12
  %51 = load ptr, ptr %3, align 8, !tbaa !12
  %52 = load ptr, ptr %7, align 8, !tbaa !12
  %53 = icmp eq ptr %51, %52
  br i1 %53, label %54, label %55

54:                                               ; preds = %42
  store i32 3, ptr %9, align 4
  br label %77

55:                                               ; preds = %42
  br label %56

56:                                               ; preds = %55, %22
  call void @llvm.lifetime.start.p0(i64 4, ptr %10) #15
  call void @llvm.lifetime.start.p0(i64 4, ptr %11) #15
  %57 = load ptr, ptr %3, align 8, !tbaa !12
  %58 = load ptr, ptr %7, align 8, !tbaa !12
  %59 = load ptr, ptr %3, align 8, !tbaa !12
  %60 = ptrtoint ptr %58 to i64
  %61 = ptrtoint ptr %59 to i64
  %62 = sub i64 %60, %61
  %63 = trunc i64 %62 to i32
  %64 = call i32 @isvalidcharntorune(ptr noundef %57, i32 noundef %63, ptr noundef %10, ptr noundef %11)
  %65 = icmp ne i32 %64, 0
  br i1 %65, label %66, label %71

66:                                               ; preds = %56
  %67 = load i32, ptr %11, align 4, !tbaa !13
  %68 = load ptr, ptr %3, align 8, !tbaa !12
  %69 = sext i32 %67 to i64
  %70 = getelementptr inbounds i8, ptr %68, i64 %69
  store ptr %70, ptr %3, align 8, !tbaa !12
  br label %74

71:                                               ; preds = %56
  %72 = load ptr, ptr %3, align 8, !tbaa !12
  %73 = getelementptr inbounds i8, ptr %72, i64 1
  store ptr %73, ptr %3, align 8, !tbaa !12
  br label %74

74:                                               ; preds = %71, %66
  %75 = load ptr, ptr %6, align 8, !tbaa !12
  %76 = getelementptr inbounds nuw i8, ptr %75, i32 1
  store ptr %76, ptr %6, align 8, !tbaa !12
  store i8 32, ptr %75, align 1, !tbaa !15
  call void @llvm.lifetime.end.p0(i64 4, ptr %11) #15
  call void @llvm.lifetime.end.p0(i64 4, ptr %10) #15
  store i32 0, ptr %9, align 4
  br label %77

77:                                               ; preds = %74, %54
  call void @llvm.lifetime.end.p0(i64 4, ptr %8) #15
  %78 = load i32, ptr %9, align 4
  switch i32 %78, label %87 [
    i32 0, label %79
    i32 3, label %80
  ]

79:                                               ; preds = %77
  br label %18, !llvm.loop !60

80:                                               ; preds = %77, %18
  %81 = load ptr, ptr %6, align 8, !tbaa !12
  %82 = load ptr, ptr %5, align 8, !tbaa !12
  %83 = ptrtoint ptr %81 to i64
  %84 = ptrtoint ptr %82 to i64
  %85 = sub i64 %83, %84
  %86 = trunc i64 %85 to i32
  store i32 1, ptr %9, align 4
  call void @llvm.lifetime.end.p0(i64 8, ptr %7) #15
  call void @llvm.lifetime.end.p0(i64 8, ptr %6) #15
  call void @llvm.lifetime.end.p0(i64 8, ptr %5) #15
  ret i32 %86

87:                                               ; preds = %77
  unreachable
}

; Function Attrs: inlinehint mustprogress uwtable
define linkonce_odr dso_local void @_ZN4i18n12phonenumbers3LOGEi(ptr dead_on_unwind noalias writable sret(%"class.i18n::phonenumbers::LoggerHandler") align 8 %0, i32 noundef %1) #8 comdat {
  %3 = alloca ptr, align 8
  %4 = alloca i32, align 4
  %5 = alloca ptr, align 8
  %6 = alloca i32, align 4
  store ptr %0, ptr %3, align 8
  store i32 %1, ptr %4, align 4, !tbaa !13
  call void @llvm.lifetime.start.p0(i64 8, ptr %5) #15
  %7 = call noundef ptr @_ZN4i18n12phonenumbers6Logger19mutable_logger_implEv()
  store ptr %7, ptr %5, align 8, !tbaa !54
  %8 = load ptr, ptr %5, align 8, !tbaa !54
  %9 = call noundef i32 @_ZNK4i18n12phonenumbers6Logger5levelEv(ptr noundef nonnull align 8 dereferenceable(12) %8)
  %10 = load i32, ptr %4, align 4, !tbaa !13
  %11 = icmp slt i32 %9, %10
  br i1 %11, label %12, label %13

12:                                               ; preds = %2
  call void @_ZN4i18n12phonenumbers13LoggerHandlerC2EPNS0_6LoggerE(ptr noundef nonnull align 8 dereferenceable(8) %0, ptr noundef null)
  store i32 1, ptr %6, align 4
  br label %19

13:                                               ; preds = %2
  %14 = load ptr, ptr %5, align 8, !tbaa !54
  %15 = load ptr, ptr %14, align 8, !tbaa !32
  %16 = getelementptr inbounds ptr, ptr %15, i64 2
  %17 = load ptr, ptr %16, align 8
  call void %17(ptr noundef nonnull align 8 dereferenceable(12) %14)
  %18 = load ptr, ptr %5, align 8, !tbaa !54
  call void @_ZN4i18n12phonenumbers13LoggerHandlerC2EPNS0_6LoggerE(ptr noundef nonnull align 8 dereferenceable(8) %0, ptr noundef %18)
  store i32 1, ptr %6, align 4
  br label %19

19:                                               ; preds = %13, %12
  call void @llvm.lifetime.end.p0(i64 8, ptr %5) #15
  ret void
}

; Function Attrs: inlinehint mustprogress uwtable
define linkonce_odr dso_local noundef zeroext i1 @_ZN4i18n12phonenumbers6UniLib18IsInterchangeValidEPKci(ptr noundef %0, i32 noundef %1) #8 comdat {
  %3 = alloca ptr, align 8
  %4 = alloca i32, align 4
  store ptr %0, ptr %3, align 8, !tbaa !12
  store i32 %1, ptr %4, align 4, !tbaa !13
  %5 = load i32, ptr %4, align 4, !tbaa !13
  %6 = load ptr, ptr %3, align 8, !tbaa !12
  %7 = load i32, ptr %4, align 4, !tbaa !13
  %8 = call noundef i32 @_ZN4i18n12phonenumbers6UniLib20SpanInterchangeValidEPKci(ptr noundef %6, i32 noundef %7)
  %9 = icmp eq i32 %5, %8
  ret i1 %9
}

; Function Attrs: mustprogress nounwind uwtable
define dso_local void @_ZN4i18n12phonenumbers11UnicodeText4Repr15TakeOwnershipOfEPcii(ptr noundef nonnull align 8 dereferenceable(18) %0, ptr noundef %1, i32 noundef %2, i32 noundef %3) #1 align 2 {
  %5 = alloca ptr, align 8
  %6 = alloca ptr, align 8
  %7 = alloca i32, align 4
  %8 = alloca i32, align 4
  store ptr %0, ptr %5, align 8, !tbaa !18
  store ptr %1, ptr %6, align 8, !tbaa !12
  store i32 %2, ptr %7, align 4, !tbaa !13
  store i32 %3, ptr %8, align 4, !tbaa !13
  %9 = load ptr, ptr %5, align 8
  %10 = load ptr, ptr %6, align 8, !tbaa !12
  %11 = getelementptr inbounds nuw %"class.i18n::phonenumbers::UnicodeText::Repr", ptr %9, i32 0, i32 0
  %12 = load ptr, ptr %11, align 8, !tbaa !26
  %13 = icmp eq ptr %10, %12
  br i1 %13, label %14, label %15

14:                                               ; preds = %4
  br label %37

15:                                               ; preds = %4
  %16 = getelementptr inbounds nuw %"class.i18n::phonenumbers::UnicodeText::Repr", ptr %9, i32 0, i32 3
  %17 = load i8, ptr %16, align 8, !tbaa !23, !range !24, !noundef !25
  %18 = trunc i8 %17 to i1
  br i1 %18, label %19, label %29

19:                                               ; preds = %15
  %20 = getelementptr inbounds nuw %"class.i18n::phonenumbers::UnicodeText::Repr", ptr %9, i32 0, i32 0
  %21 = load ptr, ptr %20, align 8, !tbaa !26
  %22 = icmp ne ptr %21, null
  br i1 %22, label %23, label %29

23:                                               ; preds = %19
  %24 = getelementptr inbounds nuw %"class.i18n::phonenumbers::UnicodeText::Repr", ptr %9, i32 0, i32 0
  %25 = load ptr, ptr %24, align 8, !tbaa !26
  %26 = icmp eq ptr %25, null
  br i1 %26, label %28, label %27

27:                                               ; preds = %23
  call void @_ZdaPv(ptr noundef %25) #17
  br label %28

28:                                               ; preds = %27, %23
  br label %29

29:                                               ; preds = %28, %19, %15
  %30 = load ptr, ptr %6, align 8, !tbaa !12
  %31 = getelementptr inbounds nuw %"class.i18n::phonenumbers::UnicodeText::Repr", ptr %9, i32 0, i32 0
  store ptr %30, ptr %31, align 8, !tbaa !26
  %32 = load i32, ptr %7, align 4, !tbaa !13
  %33 = getelementptr inbounds nuw %"class.i18n::phonenumbers::UnicodeText::Repr", ptr %9, i32 0, i32 1
  store i32 %32, ptr %33, align 8, !tbaa !27
  %34 = load i32, ptr %8, align 4, !tbaa !13
  %35 = getelementptr inbounds nuw %"class.i18n::phonenumbers::UnicodeText::Repr", ptr %9, i32 0, i32 2
  store i32 %34, ptr %35, align 4, !tbaa !20
  %36 = getelementptr inbounds nuw %"class.i18n::phonenumbers::UnicodeText::Repr", ptr %9, i32 0, i32 3
  store i8 1, ptr %36, align 8, !tbaa !23
  br label %37

37:                                               ; preds = %29, %14
  ret void
}

; Function Attrs: mustprogress uwtable
define dso_local noundef nonnull align 8 dereferenceable(24) ptr @_ZN4i18n12phonenumbers11UnicodeText19TakeOwnershipOfUTF8EPcii(ptr noundef nonnull align 8 dereferenceable(24) %0, ptr noundef %1, i32 noundef %2, i32 noundef %3) #0 align 2 personality ptr @__gxx_personality_v0 {
  %5 = alloca ptr, align 8
  %6 = alloca ptr, align 8
  %7 = alloca i32, align 4
  %8 = alloca i32, align 4
  %9 = alloca %"class.i18n::phonenumbers::LoggerHandler", align 8
  %10 = alloca ptr, align 8
  %11 = alloca i32, align 4
  store ptr %0, ptr %5, align 8, !tbaa !41
  store ptr %1, ptr %6, align 8, !tbaa !12
  store i32 %2, ptr %7, align 4, !tbaa !13
  store i32 %3, ptr %8, align 4, !tbaa !13
  %12 = load ptr, ptr %5, align 8
  %13 = getelementptr inbounds nuw %"class.i18n::phonenumbers::UnicodeText", ptr %12, i32 0, i32 0
  %14 = load ptr, ptr %6, align 8, !tbaa !12
  %15 = load i32, ptr %7, align 4, !tbaa !13
  %16 = load i32, ptr %8, align 4, !tbaa !13
  call void @_ZN4i18n12phonenumbers11UnicodeText4Repr15TakeOwnershipOfEPcii(ptr noundef nonnull align 8 dereferenceable(18) %13, ptr noundef %14, i32 noundef %15, i32 noundef %16)
  %17 = load ptr, ptr %6, align 8, !tbaa !12
  %18 = load i32, ptr %7, align 4, !tbaa !13
  %19 = call noundef zeroext i1 @_ZN4i18n12phonenumbers6UniLib18IsInterchangeValidEPKci(ptr noundef %17, i32 noundef %18)
  %20 = getelementptr inbounds nuw %"class.i18n::phonenumbers::UnicodeText", ptr %12, i32 0, i32 0
  %21 = getelementptr inbounds nuw %"class.i18n::phonenumbers::UnicodeText::Repr", ptr %20, i32 0, i32 4
  %22 = zext i1 %19 to i8
  store i8 %22, ptr %21, align 1, !tbaa !53
  %23 = getelementptr inbounds nuw %"class.i18n::phonenumbers::UnicodeText", ptr %12, i32 0, i32 0
  %24 = getelementptr inbounds nuw %"class.i18n::phonenumbers::UnicodeText::Repr", ptr %23, i32 0, i32 4
  %25 = load i8, ptr %24, align 1, !tbaa !53, !range !24, !noundef !25
  %26 = trunc i8 %25 to i1
  br i1 %26, label %41, label %27

27:                                               ; preds = %4
  call void @llvm.lifetime.start.p0(i64 8, ptr %9) #15
  call void @_ZN4i18n12phonenumbers3LOGEi(ptr dead_on_unwind writable sret(%"class.i18n::phonenumbers::LoggerHandler") align 8 %9, i32 noundef 3)
  %28 = invoke noundef nonnull align 8 dereferenceable(8) ptr @_ZN4i18n12phonenumbers13LoggerHandlerlsIA39_cEERS1_RKT_(ptr noundef nonnull align 8 dereferenceable(8) %9, ptr noundef nonnull align 1 dereferenceable(39) @.str.8)
          to label %29 unwind label %37

29:                                               ; preds = %27
  call void @_ZN4i18n12phonenumbers13LoggerHandlerD2Ev(ptr noundef nonnull align 8 dereferenceable(8) %9) #15
  call void @llvm.lifetime.end.p0(i64 8, ptr %9) #15
  %30 = getelementptr inbounds nuw %"class.i18n::phonenumbers::UnicodeText", ptr %12, i32 0, i32 0
  %31 = getelementptr inbounds nuw %"class.i18n::phonenumbers::UnicodeText::Repr", ptr %30, i32 0, i32 0
  %32 = load ptr, ptr %31, align 8, !tbaa !44
  %33 = load i32, ptr %7, align 4, !tbaa !13
  %34 = call noundef i32 @_ZN4i18n12phonenumbersL25ConvertToInterchangeValidEPci(ptr noundef %32, i32 noundef %33)
  %35 = getelementptr inbounds nuw %"class.i18n::phonenumbers::UnicodeText", ptr %12, i32 0, i32 0
  %36 = getelementptr inbounds nuw %"class.i18n::phonenumbers::UnicodeText::Repr", ptr %35, i32 0, i32 1
  store i32 %34, ptr %36, align 8, !tbaa !46
  br label %41

37:                                               ; preds = %27
  %38 = landingpad { ptr, i32 }
          cleanup
  %39 = extractvalue { ptr, i32 } %38, 0
  store ptr %39, ptr %10, align 8
  %40 = extractvalue { ptr, i32 } %38, 1
  store i32 %40, ptr %11, align 4
  call void @_ZN4i18n12phonenumbers13LoggerHandlerD2Ev(ptr noundef nonnull align 8 dereferenceable(8) %9) #15
  call void @llvm.lifetime.end.p0(i64 8, ptr %9) #15
  br label %42

41:                                               ; preds = %29, %4
  ret ptr %12

42:                                               ; preds = %37
  %43 = load ptr, ptr %10, align 8
  %44 = load i32, ptr %11, align 4
  %45 = insertvalue { ptr, i32 } poison, ptr %43, 0
  %46 = insertvalue { ptr, i32 } %45, i32 %44, 1
  resume { ptr, i32 } %46
}