; Function Attrs: mustprogress uwtable
define dso_local noundef nonnull align 8 dereferenceable(24) ptr @_ZN4i18n12phonenumbers11UnicodeText19TakeOwnershipOfUTF8EPcii(ptr noundef nonnull returned align 8 dereferenceable(24) initializes((17, 18)) %0, ptr noundef %1, i32 noundef %2, i32 noundef %3) local_unnamed_addr #1 align 2 personality ptr @__gxx_personality_v0 {
  %5 = alloca i32, align 4
  %6 = alloca i32, align 4
  %7 = alloca %"class.std::__cxx11::basic_string", align 8
  %8 = alloca %"class.i18n::phonenumbers::LoggerHandler", align 8
  %9 = load ptr, ptr %0, align 8, !tbaa !20
  %10 = icmp eq ptr %1, %9
  br i1 %10, label %_ZN4i18n12phonenumbers11UnicodeText4Repr15TakeOwnershipOfEPcii.exit, label %11

11:                                               ; preds = %4
  %12 = getelementptr inbounds nuw i8, ptr %0, i64 16
  %13 = load i8, ptr %12, align 8, !tbaa !17, !range !18, !noundef !19
  %14 = trunc nuw i8 %13 to i1
  %.not.i = icmp ne ptr %9, null
  %or.cond.not.i = and i1 %.not.i, %14
  br i1 %or.cond.not.i, label %15, label %16

15:                                               ; preds = %11
  tail call void @_ZdaPv(ptr noundef nonnull %9) #26
  br label %16

16:                                               ; preds = %15, %11
  store ptr %1, ptr %0, align 8, !tbaa !20
  %17 = getelementptr inbounds nuw i8, ptr %0, i64 8
  store i32 %2, ptr %17, align 8, !tbaa !21
  %18 = getelementptr inbounds nuw i8, ptr %0, i64 12
  store i32 %3, ptr %18, align 4, !tbaa !13
  store i8 1, ptr %12, align 8, !tbaa !17
  br label %_ZN4i18n12phonenumbers11UnicodeText4Repr15TakeOwnershipOfEPcii.exit

_ZN4i18n12phonenumbers11UnicodeText4Repr15TakeOwnershipOfEPcii.exit: ; preds = %4, %16
  %19 = tail call noundef i32 @_ZN4i18n12phonenumbers6UniLib20SpanInterchangeValidEPKci(ptr noundef %1, i32 noundef %2)
  %20 = icmp eq i32 %2, %19
  %21 = getelementptr inbounds nuw i8, ptr %0, i64 17
  %22 = zext i1 %20 to i8
  store i8 %22, ptr %21, align 1, !tbaa !48
  br i1 %20, label %79, label %23

23:                                               ; preds = %_ZN4i18n12phonenumbers11UnicodeText4Repr15TakeOwnershipOfEPcii.exit
  call void @llvm.lifetime.start.p0(i64 8, ptr nonnull %8) #27
  tail call void @llvm.experimental.noalias.scope.decl(metadata !61)
  %24 = load ptr, ptr @_ZN4i18n12phonenumbers6Logger5impl_E, align 8, !tbaa !52, !noalias !61
  %25 = getelementptr inbounds nuw i8, ptr %24, i64 8
  %26 = load i32, ptr %25, align 8, !tbaa !54, !noalias !61
  %27 = icmp slt i32 %26, 3
  br i1 %27, label %_ZN4i18n12phonenumbers3LOGEi.exit, label %28

28:                                               ; preds = %23
  %29 = load ptr, ptr %24, align 8, !tbaa !22, !noalias !61
  %30 = getelementptr inbounds nuw i8, ptr %29, i64 16
  %31 = load ptr, ptr %30, align 8, !noalias !61
  tail call void %31(ptr noundef nonnull align 8 dereferenceable(12) %24), !noalias !61
  br label %_ZN4i18n12phonenumbers3LOGEi.exit

_ZN4i18n12phonenumbers3LOGEi.exit:                ; preds = %23, %28
  %storemerge.i = phi ptr [ %24, %28 ], [ null, %23 ]
  store ptr %storemerge.i, ptr %8, align 8, !tbaa !56, !alias.scope !61
  %32 = invoke noundef nonnull align 8 dereferenceable(8) ptr @_ZN4i18n12phonenumbers13LoggerHandlerlsIA39_cEERS1_RKT_(ptr noundef nonnull align 8 dereferenceable(8) %8, ptr noundef nonnull align 1 dereferenceable(39) @.str.8)
          to label %33 unwind label %77

33:                                               ; preds = %_ZN4i18n12phonenumbers3LOGEi.exit
  %34 = load ptr, ptr %8, align 8, !tbaa !56
  %.not.i8 = icmp eq ptr %34, null
  br i1 %.not.i8, label %_ZN4i18n12phonenumbers13LoggerHandlerD2Ev.exit, label %._crit_edge.i.i.i

._crit_edge.i.i.i:                                ; preds = %33
  call void @llvm.lifetime.start.p0(i64 32, ptr nonnull %7) #27
  %35 = getelementptr inbounds nuw i8, ptr %7, i64 16
  store ptr %35, ptr %7, align 8, !tbaa !36
  store i8 10, ptr %35, align 8, !tbaa !10
  %36 = getelementptr inbounds nuw i8, ptr %7, i64 8
  store i64 1, ptr %36, align 8, !tbaa !38
  %37 = getelementptr inbounds nuw i8, ptr %7, i64 17
  store i8 0, ptr %37, align 1, !tbaa !10
  %38 = load ptr, ptr %34, align 8, !tbaa !22
  %39 = getelementptr inbounds nuw i8, ptr %38, i64 24
  %40 = load ptr, ptr %39, align 8
  invoke void %40(ptr noundef nonnull align 8 dereferenceable(12) %34, ptr noundef nonnull align 8 dereferenceable(32) %7)
          to label %41 unwind label %48

41:                                               ; preds = %._crit_edge.i.i.i
  %42 = load ptr, ptr %7, align 8, !tbaa !40
  %43 = icmp eq ptr %42, %35
  br i1 %43, label %_ZNKSt7__cxx1112basic_stringIcSt11char_traitsIcESaIcEE11_M_is_localEv.exit.thread.i.i.i, label %_ZNKSt7__cxx1112basic_stringIcSt11char_traitsIcESaIcEE11_M_is_localEv.exit.i.i.i

_ZNKSt7__cxx1112basic_stringIcSt11char_traitsIcESaIcEE11_M_is_localEv.exit.thread.i.i.i: ; preds = %41
  %44 = load i64, ptr %36, align 8, !tbaa !38
  %45 = icmp ult i64 %44, 16
  call void @llvm.assume(i1 %45)
  br label %_ZNSt7__cxx1112basic_stringIcSt11char_traitsIcESaIcEED2Ev.exit.i

_ZNKSt7__cxx1112basic_stringIcSt11char_traitsIcESaIcEE11_M_is_localEv.exit.i.i.i: ; preds = %41
  %46 = load i64, ptr %35, align 8, !tbaa !10
  %47 = add i64 %46, 1
  call void @_ZdlPvm(ptr noundef %42, i64 noundef %47) #26
  br label %_ZNSt7__cxx1112basic_stringIcSt11char_traitsIcESaIcEED2Ev.exit.i

_ZNSt7__cxx1112basic_stringIcSt11char_traitsIcESaIcEED2Ev.exit.i: ; preds = %_ZNKSt7__cxx1112basic_stringIcSt11char_traitsIcESaIcEE11_M_is_localEv.exit.i.i.i, %_ZNKSt7__cxx1112basic_stringIcSt11char_traitsIcESaIcEE11_M_is_localEv.exit.thread.i.i.i
  call void @llvm.lifetime.end.p0(i64 32, ptr nonnull %7) #27
  br label %_ZN4i18n12phonenumbers13LoggerHandlerD2Ev.exit

48:                                               ; preds = %._crit_edge.i.i.i
  %49 = landingpad { ptr, i32 }
          catch ptr null
  %50 = extractvalue { ptr, i32 } %49, 0
  call void @__clang_call_terminate(ptr %50) #29
  unreachable

_ZN4i18n12phonenumbers13LoggerHandlerD2Ev.exit:   ; preds = %33, %_ZNSt7__cxx1112basic_stringIcSt11char_traitsIcESaIcEED2Ev.exit.i
  call void @llvm.lifetime.end.p0(i64 8, ptr nonnull %8) #27
  %51 = load ptr, ptr %0, align 8, !tbaa !44
  %52 = sext i32 %2 to i64
  %53 = getelementptr inbounds i8, ptr %51, i64 %52
  %54 = icmp sgt i32 %2, 0
  br i1 %54, label %.lr.ph.i, label %_ZN4i18n12phonenumbersL25ConvertToInterchangeValidEPci.exit

.lr.ph.i:                                         ; preds = %_ZN4i18n12phonenumbers13LoggerHandlerD2Ev.exit
  %55 = ptrtoint ptr %53 to i64
  br label %56

56:                                               ; preds = %67, %.lr.ph.i
  %.02944.i = phi ptr [ %51, %.lr.ph.i ], [ %.3.i, %67 ]
  %.03043.i = phi ptr [ %51, %.lr.ph.i ], [ %70, %67 ]
  %57 = ptrtoint ptr %.02944.i to i64
  %58 = sub i64 %55, %57
  %59 = trunc i64 %58 to i32
  %60 = call noundef i32 @_ZN4i18n12phonenumbers6UniLib20SpanInterchangeValidEPKci(ptr noundef %.02944.i, i32 noundef %59)
  %61 = icmp sgt i32 %60, 0
  br i1 %61, label %62, label %67

62:                                               ; preds = %56
  %.not.i9 = icmp eq ptr %.03043.i, %.02944.i
  %.pre.i = zext nneg i32 %60 to i64
  br i1 %.not.i9, label %._crit_edge47.i, label %63

63:                                               ; preds = %62
  call void @llvm.memmove.p0.p0.i64(ptr align 1 %.03043.i, ptr align 1 %.02944.i, i64 %.pre.i, i1 false)
  br label %._crit_edge47.i

._crit_edge47.i:                                  ; preds = %63, %62
  %64 = getelementptr inbounds nuw i8, ptr %.03043.i, i64 %.pre.i
  %65 = getelementptr inbounds nuw i8, ptr %.02944.i, i64 %.pre.i
  %66 = icmp eq ptr %65, %53
  br i1 %66, label %_ZN4i18n12phonenumbersL25ConvertToInterchangeValidEPci.exit, label %._crit_edge.i

._crit_edge.i:                                    ; preds = %._crit_edge47.i
  %.pre48.i = ptrtoint ptr %65 to i64
  %.pre50.i = sub i64 %55, %.pre48.i
  %.pre52.i = trunc i64 %.pre50.i to i32
  br label %67

67:                                               ; preds = %._crit_edge.i, %56
  %.pre-phi53.i = phi i32 [ %.pre52.i, %._crit_edge.i ], [ %59, %56 ]
  %.232.i = phi ptr [ %64, %._crit_edge.i ], [ %.03043.i, %56 ]
  %.1.i = phi ptr [ %65, %._crit_edge.i ], [ %.02944.i, %56 ]
  call void @llvm.lifetime.start.p0(i64 4, ptr nonnull %5) #27
  call void @llvm.lifetime.start.p0(i64 4, ptr nonnull %6) #27
  %68 = call i32 @isvalidcharntorune(ptr noundef %.1.i, i32 noundef %.pre-phi53.i, ptr noundef nonnull %5, ptr noundef nonnull %6)
  %.not38.i = icmp eq i32 %68, 0
  %69 = load i32, ptr %6, align 4
  %narrow.i = select i1 %.not38.i, i32 1, i32 %69
  %.3.v.i = sext i32 %narrow.i to i64
  %.3.i = getelementptr inbounds i8, ptr %.1.i, i64 %.3.v.i
  %70 = getelementptr inbounds nuw i8, ptr %.232.i, i64 1
  store i8 32, ptr %.232.i, align 1, !tbaa !10
  call void @llvm.lifetime.end.p0(i64 4, ptr nonnull %6) #27
  call void @llvm.lifetime.end.p0(i64 4, ptr nonnull %5) #27
  %71 = icmp ult ptr %.3.i, %53
  br i1 %71, label %56, label %_ZN4i18n12phonenumbersL25ConvertToInterchangeValidEPci.exit

_ZN4i18n12phonenumbersL25ConvertToInterchangeValidEPci.exit: ; preds = %._crit_edge47.i, %67, %_ZN4i18n12phonenumbers13LoggerHandlerD2Ev.exit
  %.131.i = phi ptr [ %51, %_ZN4i18n12phonenumbers13LoggerHandlerD2Ev.exit ], [ %70, %67 ], [ %64, %._crit_edge47.i ]
  %72 = ptrtoint ptr %.131.i to i64
  %73 = ptrtoint ptr %51 to i64
  %74 = sub i64 %72, %73
  %75 = trunc i64 %74 to i32
  %76 = getelementptr inbounds nuw i8, ptr %0, i64 8
  store i32 %75, ptr %76, align 8, !tbaa !46
  br label %79

77:                                               ; preds = %_ZN4i18n12phonenumbers3LOGEi.exit
  %78 = landingpad { ptr, i32 }
          cleanup
  call void @_ZN4i18n12phonenumbers13LoggerHandlerD2Ev(ptr noundef nonnull align 8 dereferenceable(8) %8) #27
  call void @llvm.lifetime.end.p0(i64 8, ptr nonnull %8) #27
  resume { ptr, i32 } %78

79:                                               ; preds = %_ZN4i18n12phonenumbersL25ConvertToInterchangeValidEPci.exit, %_ZN4i18n12phonenumbers11UnicodeText4Repr15TakeOwnershipOfEPcii.exit
  ret ptr %0
}